; ModuleID = '26/573.c'
source_filename = "26/573.c"
target datalayout = "e-m:e-p270:32:32-p271:32:32-p272:64:64-i64:64-f80:128-n8:16:32:64-S128"
target triple = "x86_64-pc-linux-gnu"

@.str = private unnamed_addr constant [3 x i8] c"%s\00", align 1

; Function Attrs: noinline nounwind uwtable
define dso_local i32 @main() #0 {
  %1 = alloca i32, align 4
  %2 = alloca i32, align 4
  %3 = alloca i32, align 4
  %4 = alloca i32, align 4
  %5 = alloca [100 x i32], align 16
  %6 = alloca [100 x i8], align 16
  %7 = alloca [100 x [100 x i8]], align 16
  store i32 0, i32* %1, align 4
  store i32 0, i32* %4, align 4
  %8 = bitcast [100 x i32]* %5 to i8*
  call void @llvm.memset.p0i8.i64(i8* align 16 %8, i8 0, i64 400, i1 false)
  %9 = getelementptr inbounds [100 x i8], [100 x i8]* %6, i64 0, i64 0
  %10 = call i32 (i8*, ...) bitcast (i32 (...)* @gets to i32 (i8*, ...)*)(i8* %9)
  %11 = getelementptr inbounds [100 x i8], [100 x i8]* %6, i64 0, i64 0
  %12 = call i64 @strlen(i8* %11) #4
  %13 = trunc i64 %12 to i32
  store i32 %13, i32* %3, align 4
  store i32 0, i32* %2, align 4
  br label %14

14:                                               ; preds = %91, %0
  %15 = load i32, i32* %2, align 4
  %16 = load i32, i32* %3, align 4
  %17 = sub nsw i32 %16, 1
  %18 = icmp slt i32 %15, %17
  br i1 %18, label %19, label %94

19:                                               ; preds = %14
  %20 = load i32, i32* %2, align 4
  %21 = sext i32 %20 to i64
  %22 = getelementptr inbounds [100 x i8], [100 x i8]* %6, i64 0, i64 %21
  %23 = load i8, i8* %22, align 1
  %24 = sext i8 %23 to i32
  %25 = icmp ne i32 %24, 32
  br i1 %25, label %26, label %90

26:                                               ; preds = %19
  %27 = load i32, i32* %2, align 4
  %28 = add nsw i32 %27, 1
  %29 = sext i32 %28 to i64
  %30 = getelementptr inbounds [100 x i8], [100 x i8]* %6, i64 0, i64 %29
  %31 = load i8, i8* %30, align 1
  %32 = sext i8 %31 to i32
  %33 = icmp ne i32 %32, 32
  br i1 %33, label %34, label %53

34:                                               ; preds = %26
  %35 = load i32, i32* %2, align 4
  %36 = sext i32 %35 to i64
  %37 = getelementptr inbounds [100 x i8], [100 x i8]* %6, i64 0, i64 %36
  %38 = load i8, i8* %37, align 1
  %39 = load i32, i32* %4, align 4
  %40 = sext i32 %39 to i64
  %41 = getelementptr inbounds [100 x [100 x i8]], [100 x [100 x i8]]* %7, i64 0, i64 %40
  %42 = load i32, i32* %4, align 4
  %43 = sext i32 %42 to i64
  %44 = getelementptr inbounds [100 x i32], [100 x i32]* %5, i64 0, i64 %43
  %45 = load i32, i32* %44, align 4
  %46 = sext i32 %45 to i64
  %47 = getelementptr inbounds [100 x i8], [100 x i8]* %41, i64 0, i64 %46
  store i8 %38, i8* %47, align 1
  %48 = load i32, i32* %4, align 4
  %49 = sext i32 %48 to i64
  %50 = getelementptr inbounds [100 x i32], [100 x i32]* %5, i64 0, i64 %49
  %51 = load i32, i32* %50, align 4
  %52 = add nsw i32 %51, 1
  store i32 %52, i32* %50, align 4
  br label %89

53:                                               ; preds = %26
  %54 = load i32, i32* %2, align 4
  %55 = sext i32 %54 to i64
  %56 = getelementptr inbounds [100 x i8], [100 x i8]* %6, i64 0, i64 %55
  %57 = load i8, i8* %56, align 1
  %58 = load i32, i32* %4, align 4
  %59 = sext i32 %58 to i64
  %60 = getelementptr inbounds [100 x [100 x i8]], [100 x [100 x i8]]* %7, i64 0, i64 %59
  %61 = load i32, i32* %4, align 4
  %62 = sext i32 %61 to i64
  %63 = getelementptr inbounds [100 x i32], [100 x i32]* %5, i64 0, i64 %62
  %64 = load i32, i32* %63, align 4
  %65 = sext i32 %64 to i64
  %66 = getelementptr inbounds [100 x i8], [100 x i8]* %60, i64 0, i64 %65
  store i8 %57, i8* %66, align 1
  %67 = load i32, i32* %4, align 4
  %68 = sext i32 %67 to i64
  %69 = getelementptr inbounds [100 x [100 x i8]], [100 x [100 x i8]]* %7, i64 0, i64 %68
  %70 = load i32, i32* %4, align 4
  %71 = sext i32 %70 to i64
  %72 = getelementptr inbounds [100 x i32], [100 x i32]* %5, i64 0, i64 %71
  %73 = load i32, i32* %72, align 4
  %74 = add nsw i32 %73, 1
  %75 = sext i32 %74 to i64
  %76 = getelementptr inbounds [100 x i8], [100 x i8]* %69, i64 0, i64 %75
  store i8 32, i8* %76, align 1
  %77 = load i32, i32* %4, align 4
  %78 = sext i32 %77 to i64
  %79 = getelementptr inbounds [100 x [100 x i8]], [100 x [100 x i8]]* %7, i64 0, i64 %78
  %80 = load i32, i32* %4, align 4
  %81 = sext i32 %80 to i64
  %82 = getelementptr inbounds [100 x i32], [100 x i32]* %5, i64 0, i64 %81
  %83 = load i32, i32* %82, align 4
  %84 = add nsw i32 %83, 2
  %85 = sext i32 %84 to i64
  %86 = getelementptr inbounds [100 x i8], [100 x i8]* %79, i64 0, i64 %85
  store i8 0, i8* %86, align 1
  %87 = load i32, i32* %4, align 4
  %88 = add nsw i32 %87, 1
  store i32 %88, i32* %4, align 4
  br label %89

89:                                               ; preds = %53, %34
  br label %90

90:                                               ; preds = %89, %19
  br label %91

91:                                               ; preds = %90
  %92 = load i32, i32* %2, align 4
  %93 = add nsw i32 %92, 1
  store i32 %93, i32* %2, align 4
  br label %14

94:                                               ; preds = %14
  %95 = load i32, i32* %3, align 4
  %96 = sub nsw i32 %95, 1
  %97 = sext i32 %96 to i64
  %98 = getelementptr inbounds [100 x i8], [100 x i8]* %6, i64 0, i64 %97
  %99 = load i8, i8* %98, align 1
  %100 = load i32, i32* %4, align 4
  %101 = sext i32 %100 to i64
  %102 = getelementptr inbounds [100 x [100 x i8]], [100 x [100 x i8]]* %7, i64 0, i64 %101
  %103 = load i32, i32* %4, align 4
  %104 = sext i32 %103 to i64
  %105 = getelementptr inbounds [100 x i32], [100 x i32]* %5, i64 0, i64 %104
  %106 = load i32, i32* %105, align 4
  %107 = sext i32 %106 to i64
  %108 = getelementptr inbounds [100 x i8], [100 x i8]* %102, i64 0, i64 %107
  store i8 %99, i8* %108, align 1
  %109 = load i32, i32* %4, align 4
  %110 = sext i32 %109 to i64
  %111 = getelementptr inbounds [100 x [100 x i8]], [100 x [100 x i8]]* %7, i64 0, i64 %110
  %112 = load i32, i32* %4, align 4
  %113 = sext i32 %112 to i64
  %114 = getelementptr inbounds [100 x i32], [100 x i32]* %5, i64 0, i64 %113
  %115 = load i32, i32* %114, align 4
  %116 = add nsw i32 %115, 1
  %117 = sext i32 %116 to i64
  %118 = getelementptr inbounds [100 x i8], [100 x i8]* %111, i64 0, i64 %117
  store i8 0, i8* %118, align 1
  %119 = load i32, i32* %4, align 4
  %120 = add nsw i32 %119, 1
  store i32 %120, i32* %4, align 4
  store i32 0, i32* %2, align 4
  br label %121

121:                                              ; preds = %131, %94
  %122 = load i32, i32* %2, align 4
  %123 = load i32, i32* %4, align 4
  %124 = icmp slt i32 %122, %123
  br i1 %124, label %125, label %134

125:                                              ; preds = %121
  %126 = load i32, i32* %2, align 4
  %127 = sext i32 %126 to i64
  %128 = getelementptr inbounds [100 x [100 x i8]], [100 x [100 x i8]]* %7, i64 0, i64 %127
  %129 = getelementptr inbounds [100 x i8], [100 x i8]* %128, i64 0, i64 0
  %130 = call i32 (i8*, ...) @printf(i8* getelementptr inbounds ([3 x i8], [3 x i8]* @.str, i64 0, i64 0), i8* %129)
  br label %131

131:                                              ; preds = %125
  %132 = load i32, i32* %2, align 4
  %133 = add nsw i32 %132, 1
  store i32 %133, i32* %2, align 4
  br label %121

134:                                              ; preds = %121
  ret i32 0
}

; Function Attrs: argmemonly nounwind willreturn
declare void @llvm.memset.p0i8.i64(i8* nocapture writeonly, i8, i64, i1 immarg) #1

declare dso_local i32 @gets(...) #2

; Function Attrs: nounwind readonly
declare dso_local i64 @strlen(i8*) #3

declare dso_local i32 @printf(i8*, ...) #2


!llvm.module.flags = !{!0}
!llvm.ident = !{!1}

!0 = !{i32 1, !"wchar_size", i32 4}
!1 = !{!"clang version 10.0.0-4ubuntu1 "}
